TN:
SF:/usr/include/c++/5/bits/ios_base.h
FN:129,_ZStorSt13_Ios_OpenmodeS_
FNDA:46,_ZStorSt13_Ios_OpenmodeS_
FNF:1
FNH:1
DA:129,46
DA:130,46
LF:2
LH:2
end_of_record
SF:/usr/include/c++/5/iostream
DA:74,1
LF:1
LH:1
end_of_record
SF:/home/uic84214/bootcamp/p8/src/p8.c
FN:3,_Z4taskPv
FN:11,_Z14handle_threadsv
FNDA:1,_Z4taskPv
FNDA:4,_Z14handle_threadsv
FNF:2
FNH:2
DA:3,1
DA:5,1
DA:7,1
DA:9,1
DA:11,4
DA:13,4
DA:15,4
DA:17,24
DA:19,22
DA:21,22
DA:23,2
DA:24,2
DA:29,4
DA:32,12
DA:34,11
DA:36,11
DA:38,1
DA:39,1
DA:46,4
LF:19
LH:19
end_of_record
SF:/usr/include/c++/5/bits/ios_base.h
DA:129,46
DA:130,46
LF:2
LH:2
end_of_record
SF:/usr/include/c++/5/iostream
DA:74,1
LF:1
LH:1
end_of_record
SF:/home/uic84214/bootcamp/p8/src/p8.c
DA:3,1
DA:5,1
DA:7,1
DA:9,1
DA:11,4
DA:13,4
DA:15,4
DA:17,24
DA:19,22
DA:21,22
DA:23,2
DA:24,2
DA:29,4
DA:32,12
DA:34,11
DA:36,11
DA:38,1
DA:39,1
DA:46,4
LF:19
LH:19
end_of_record
SF:/home/uic84214/bootcamp/p8/test/stubs.c
FN:15,_Z19pthread_create_stubPmPK14pthread_attr_tPFPvS3_ES3_
FN:20,_Z17pthread_join_stubmPPv
FNDA:25,_Z19pthread_create_stubPmPK14pthread_attr_tPFPvS3_ES3_
FNDA:11,_Z17pthread_join_stubmPPv
FNF:2
FNH:2
DA:15,25
DA:17,25
DA:20,11
DA:22,11
LF:4
LH:4
end_of_record
SF:/home/uic84214/bootcamp/p8/test/test.cpp
FN:30,_ZN13MyTestFixtureC2Ev
FN:37,_ZN13MyTestFixture5SetUpEv
FN:43,_ZN13MyTestFixture8TearDownEv
FN:48,_ZN13MyTestFixtureD2Ev
FN:48,_ZN13MyTestFixtureD0Ev
FN:54,_ZN39MyTestFixture_WhenEverythingGoesOK_Test8TestBodyEv
FN:54,_ZN39MyTestFixture_WhenEverythingGoesOK_TestD2Ev
FN:54,_ZN39MyTestFixture_WhenEverythingGoesOK_TestD0Ev
FN:54,_ZN39MyTestFixture_WhenEverythingGoesOK_TestC2Ev
FN:59,_ZN38MyTestFixture_WhenSomeThreadsFail_TestD2Ev
FN:59,_ZN38MyTestFixture_WhenSomeThreadsFail_Test8TestBodyEv
FN:59,_ZN38MyTestFixture_WhenSomeThreadsFail_TestC2Ev
FN:59,_ZN38MyTestFixture_WhenSomeThreadsFail_TestD0Ev
FN:66,_ZN37MyTestFixture_PthreadCreateFails_TestD2Ev
FN:66,_ZN37MyTestFixture_PthreadCreateFails_TestC2Ev
FN:66,_ZN37MyTestFixture_PthreadCreateFails_Test8TestBodyEv
FN:66,_ZN37MyTestFixture_PthreadCreateFails_TestD0Ev
FN:73,_ZN35MyTestFixture_PthreadJoinFails_TestC2Ev
FN:73,_ZN35MyTestFixture_PthreadJoinFails_TestD0Ev
FN:73,_ZN35MyTestFixture_PthreadJoinFails_TestD2Ev
FN:73,_ZN35MyTestFixture_PthreadJoinFails_Test8TestBodyEv
FN:80,_ZN31MyTestFixture_TaskFunction_Test8TestBodyEv
FN:80,_ZN31MyTestFixture_TaskFunction_TestD2Ev
FN:80,_ZN31MyTestFixture_TaskFunction_TestC2Ev
FN:80,_ZN31MyTestFixture_TaskFunction_TestD0Ev
FN:85,main
FN:89,_Z41__static_initialization_and_destruction_0ii
FN:89,_GLOBAL__sub_I__Z4taskPv
FNDA:5,_ZN13MyTestFixtureC2Ev
FNDA:5,_ZN13MyTestFixture5SetUpEv
FNDA:5,_ZN13MyTestFixture8TearDownEv
FNDA:0,_ZN13MyTestFixtureD0Ev
FNDA:5,_ZN13MyTestFixtureD2Ev
FNDA:1,_ZN39MyTestFixture_WhenEverythingGoesOK_TestD0Ev
FNDA:1,_ZN39MyTestFixture_WhenEverythingGoesOK_TestD2Ev
FNDA:1,_ZN39MyTestFixture_WhenEverythingGoesOK_Test8TestBodyEv
FNDA:1,_ZN39MyTestFixture_WhenEverythingGoesOK_TestC2Ev
FNDA:1,_ZN38MyTestFixture_WhenSomeThreadsFail_TestD0Ev
FNDA:1,_ZN38MyTestFixture_WhenSomeThreadsFail_TestD2Ev
FNDA:1,_ZN38MyTestFixture_WhenSomeThreadsFail_Test8TestBodyEv
FNDA:1,_ZN38MyTestFixture_WhenSomeThreadsFail_TestC2Ev
FNDA:1,_ZN37MyTestFixture_PthreadCreateFails_TestD0Ev
FNDA:1,_ZN37MyTestFixture_PthreadCreateFails_TestD2Ev
FNDA:1,_ZN37MyTestFixture_PthreadCreateFails_Test8TestBodyEv
FNDA:1,_ZN37MyTestFixture_PthreadCreateFails_TestC2Ev
FNDA:1,_ZN35MyTestFixture_PthreadJoinFails_TestD0Ev
FNDA:1,_ZN35MyTestFixture_PthreadJoinFails_TestD2Ev
FNDA:1,_ZN35MyTestFixture_PthreadJoinFails_Test8TestBodyEv
FNDA:1,_ZN35MyTestFixture_PthreadJoinFails_TestC2Ev
FNDA:1,_ZN31MyTestFixture_TaskFunction_TestD0Ev
FNDA:1,_ZN31MyTestFixture_TaskFunction_TestD2Ev
FNDA:1,_ZN31MyTestFixture_TaskFunction_Test8TestBodyEv
FNDA:1,_ZN31MyTestFixture_TaskFunction_TestC2Ev
FNDA:1,main
FNDA:1,_GLOBAL__sub_I__Z4taskPv
FNDA:1,_Z41__static_initialization_and_destruction_0ii
FNF:28
FNH:27
DA:30,5
DA:31,5
DA:33,5
DA:34,5
DA:35,5
DA:37,5
DA:41,5
DA:43,5
DA:46,5
DA:48,5
DA:49,5
DA:51,5
DA:54,5
DA:56,1
DA:59,5
DA:61,1
DA:62,1
DA:63,1
DA:66,5
DA:68,1
DA:69,1
DA:70,1
DA:73,5
DA:75,1
DA:76,1
DA:77,1
DA:80,5
DA:82,1
DA:85,1
DA:87,1
DA:88,1
DA:89,3
LF:32
LH:32
end_of_record
