TN:
SF:/usr/include/c++/5/bits/ios_base.h
FN:129,_ZStorSt13_Ios_OpenmodeS_
FNDA:48,_ZStorSt13_Ios_OpenmodeS_
FNF:1
FNH:1
DA:129,48
DA:130,48
LF:2
LH:2
end_of_record
SF:/usr/include/c++/5/iostream
DA:74,1
LF:1
LH:1
end_of_record
SF:/home/uic84214/bootcamp/p9/src/p9.c
FN:7,_Z4taskPv
FN:28,_Z14handle_threadsv
FNDA:2,_Z4taskPv
FNDA:5,_Z14handle_threadsv
FNF:2
FNH:2
DA:7,2
DA:9,2
DA:11,1
DA:13,1
DA:15,1
DA:16,1
DA:21,1
DA:22,1
DA:26,0
DA:28,5
DA:31,5
DA:32,5
DA:33,5
DA:35,5
DA:37,5
DA:39,1
DA:40,1
DA:45,24
DA:47,22
DA:49,22
DA:51,2
DA:52,2
DA:57,4
DA:59,12
DA:61,11
DA:63,11
DA:65,1
DA:66,1
DA:73,4
DA:74,4
DA:75,4
DA:78,5
LF:32
LH:31
end_of_record

SF:/usr/include/c++/5/bits/ios_base.h
DA:129,48
DA:130,48
LF:2
LH:2
end_of_record
SF:/usr/include/c++/5/iostream
DA:74,1
LF:1
LH:1
end_of_record
SF:/home/uic84214/bootcamp/p9/src/p9.c
DA:7,2
DA:9,2
DA:11,1
DA:13,1
DA:15,1
DA:16,1
DA:21,1
DA:22,1
DA:26,0
DA:28,5
DA:31,5
DA:32,5
DA:33,5
DA:35,5
DA:37,5
DA:39,1
DA:40,1
DA:45,24
DA:47,22
DA:49,22
DA:51,2
DA:52,2
DA:57,4
DA:59,12
DA:61,11
DA:63,11
DA:65,1
DA:66,1
DA:73,4
DA:74,4
DA:75,4
DA:78,5
LF:32
LH:31
end_of_record
SF:/home/uic84214/bootcamp/p9/test/stubs.c
FN:15,_Z19pthread_create_stubPmPK14pthread_attr_tPFPvS3_ES3_
FN:20,_Z17pthread_join_stubmPPv
FN:25,_Z23pthread_mutex_lock_stubP15pthread_mutex_t
FN:30,_Z25pthread_mutex_unlock_stubP15pthread_mutex_t
FN:35,_Z11malloc_stubm
FNDA:24,_Z19pthread_create_stubPmPK14pthread_attr_tPFPvS3_ES3_
FNDA:12,_Z17pthread_join_stubmPPv
FNDA:2,_Z23pthread_mutex_lock_stubP15pthread_mutex_t
FNDA:1,_Z25pthread_mutex_unlock_stubP15pthread_mutex_t
FNDA:5,_Z11malloc_stubm
FNF:5
FNH:5
DA:15,24
DA:17,24
DA:20,12
DA:22,12
DA:25,2
DA:27,2
DA:30,1
DA:32,1
DA:35,5
DA:37,5
LF:10
LH:10
end_of_record
SF:/home/uic84214/bootcamp/p9/test/test.cpp
FN:33,_ZN13MyTestFixtureC2Ev
FN:44,_ZN13MyTestFixture5SetUpEv
FN:50,_ZN13MyTestFixture8TearDownEv
FN:55,_ZN13MyTestFixtureD2Ev
FN:55,_ZN13MyTestFixtureD0Ev
FN:61,_ZN36MyTestFixture_AllocationFailure_TestD0Ev
FN:61,_ZN36MyTestFixture_AllocationFailure_TestD2Ev
FN:61,_ZN36MyTestFixture_AllocationFailure_TestC2Ev
FN:61,_ZN36MyTestFixture_AllocationFailure_Test8TestBodyEv
FN:66,_ZN24MyTestFixture_AllOK_TestD0Ev
FN:66,_ZN24MyTestFixture_AllOK_TestC2Ev
FN:66,_ZN24MyTestFixture_AllOK_TestD2Ev
FN:66,_ZN24MyTestFixture_AllOK_Test8TestBodyEv
FN:72,_ZN30MyTestFixture_ThreadsFail_Test8TestBodyEv
FN:72,_ZN30MyTestFixture_ThreadsFail_TestD2Ev
FN:72,_ZN30MyTestFixture_ThreadsFail_TestC2Ev
FN:72,_ZN30MyTestFixture_ThreadsFail_TestD0Ev
FN:80,_ZN37MyTestFixture_PthreadCreateFails_Test8TestBodyEv
FN:80,_ZN37MyTestFixture_PthreadCreateFails_TestC2Ev
FN:80,_ZN37MyTestFixture_PthreadCreateFails_TestD2Ev
FN:80,_ZN37MyTestFixture_PthreadCreateFails_TestD0Ev
FN:87,_ZN35MyTestFixture_PthreadJoinFails_TestC2Ev
FN:87,_ZN35MyTestFixture_PthreadJoinFails_TestD2Ev
FN:87,_ZN35MyTestFixture_PthreadJoinFails_TestD0Ev
FN:87,_ZN35MyTestFixture_PthreadJoinFails_Test8TestBodyEv
FN:94,_ZN40MyTestFixture_PthreadMutexLockFails_TestC2Ev
FN:94,_ZN40MyTestFixture_PthreadMutexLockFails_Test8TestBodyEv
FN:94,_ZN40MyTestFixture_PthreadMutexLockFails_TestD0Ev
FN:94,_ZN40MyTestFixture_PthreadMutexLockFails_TestD2Ev
FN:100,_ZN42MyTestFixture_PthreadMutexUnlockFails_TestD0Ev
FN:100,_ZN42MyTestFixture_PthreadMutexUnlockFails_TestD2Ev
FN:100,_ZN42MyTestFixture_PthreadMutexUnlockFails_TestC2Ev
FN:100,_ZN42MyTestFixture_PthreadMutexUnlockFails_Test8TestBodyEv
FN:106,main
FN:110,_GLOBAL__sub_I_mutex
FN:110,_Z41__static_initialization_and_destruction_0ii
FNDA:7,_ZN13MyTestFixtureC2Ev
FNDA:7,_ZN13MyTestFixture5SetUpEv
FNDA:7,_ZN13MyTestFixture8TearDownEv
FNDA:0,_ZN13MyTestFixtureD0Ev
FNDA:7,_ZN13MyTestFixtureD2Ev
FNDA:1,_ZN36MyTestFixture_AllocationFailure_TestD0Ev
FNDA:1,_ZN36MyTestFixture_AllocationFailure_TestD2Ev
FNDA:1,_ZN36MyTestFixture_AllocationFailure_Test8TestBodyEv
FNDA:1,_ZN36MyTestFixture_AllocationFailure_TestC2Ev
FNDA:1,_ZN24MyTestFixture_AllOK_TestD0Ev
FNDA:1,_ZN24MyTestFixture_AllOK_TestD2Ev
FNDA:1,_ZN24MyTestFixture_AllOK_Test8TestBodyEv
FNDA:1,_ZN24MyTestFixture_AllOK_TestC2Ev
FNDA:1,_ZN30MyTestFixture_ThreadsFail_TestD0Ev
FNDA:1,_ZN30MyTestFixture_ThreadsFail_TestD2Ev
FNDA:1,_ZN30MyTestFixture_ThreadsFail_Test8TestBodyEv
FNDA:1,_ZN30MyTestFixture_ThreadsFail_TestC2Ev
FNDA:1,_ZN37MyTestFixture_PthreadCreateFails_TestD0Ev
FNDA:1,_ZN37MyTestFixture_PthreadCreateFails_TestD2Ev
FNDA:1,_ZN37MyTestFixture_PthreadCreateFails_Test8TestBodyEv
FNDA:1,_ZN37MyTestFixture_PthreadCreateFails_TestC2Ev
FNDA:1,_ZN35MyTestFixture_PthreadJoinFails_TestD0Ev
FNDA:1,_ZN35MyTestFixture_PthreadJoinFails_TestD2Ev
FNDA:1,_ZN35MyTestFixture_PthreadJoinFails_Test8TestBodyEv
FNDA:1,_ZN35MyTestFixture_PthreadJoinFails_TestC2Ev
FNDA:1,_ZN40MyTestFixture_PthreadMutexLockFails_TestD0Ev
FNDA:1,_ZN40MyTestFixture_PthreadMutexLockFails_TestD2Ev
FNDA:1,_ZN40MyTestFixture_PthreadMutexLockFails_Test8TestBodyEv
FNDA:1,_ZN40MyTestFixture_PthreadMutexLockFails_TestC2Ev
FNDA:1,_ZN42MyTestFixture_PthreadMutexUnlockFails_TestD0Ev
FNDA:1,_ZN42MyTestFixture_PthreadMutexUnlockFails_TestD2Ev
FNDA:1,_ZN42MyTestFixture_PthreadMutexUnlockFails_Test8TestBodyEv
FNDA:1,_ZN42MyTestFixture_PthreadMutexUnlockFails_TestC2Ev
FNDA:1,main
FNDA:1,_GLOBAL__sub_I_mutex
FNDA:1,_Z41__static_initialization_and_destruction_0ii
FNF:36
FNH:35
DA:30,7
DA:31,7
DA:33,7
DA:34,21
DA:36,7
DA:37,7
DA:38,7
DA:39,7
DA:40,7
DA:41,7
DA:42,7
DA:44,7
DA:48,7
DA:50,7
DA:53,7
DA:55,7
DA:56,7
DA:58,7
DA:61,5
DA:63,1
DA:66,5
DA:68,1
DA:69,1
DA:72,5
DA:74,1
DA:75,1
DA:76,1
DA:77,1
DA:80,5
DA:82,1
DA:83,1
DA:84,1
DA:87,5
DA:89,1
DA:90,1
DA:91,1
DA:94,5
DA:96,1
DA:97,1
DA:100,5
DA:102,1
DA:103,1
DA:106,1
DA:108,1
DA:109,1
DA:110,3
LF:46
LH:46
end_of_record
