TN:
SF:/usr/include/c++/5/bits/ios_base.h
FN:129,_ZStorSt13_Ios_OpenmodeS_
FNDA:51,_ZStorSt13_Ios_OpenmodeS_
FNF:1
FNH:1
DA:129,51
DA:130,51
LF:2
LH:2
end_of_record
SF:/usr/include/c++/5/iostream
DA:74,1
LF:1
LH:1
end_of_record

SF:/home/uic84214/bootcamp/p10/src/p10.c
FN:13,_Z4taskPv
FN:47,_Z14handle_threadsv
FNDA:2,_Z4taskPv
FNDA:8,_Z14handle_threadsv
FNF:2
FNH:2
DA:13,2
DA:15,2
DA:16,2
DA:17,2
DA:19,2
DA:22,1
DA:24,0
DA:25,0
DA:27,0
DA:29,0
DA:33,1
DA:34,1
DA:36,1
DA:42,1
DA:45,0
DA:47,8
DA:50,8
DA:51,8
DA:53,68
DA:56,62
DA:58,62
DA:60,2
DA:61,2
DA:67,8
DA:69,8
DA:71,6
DA:73,6
DA:75,6
DA:77,5
DA:78,5
DA:81,5
DA:83,4
DA:85,4
DA:88,3
DA:90,23
DA:92,21
DA:94,21
DA:96,1
DA:97,1
DA:100,3
DA:102,2
DA:104,2
DA:106,1
DA:107,1
DA:111,1
DA:122,8
LF:46
LH:41
end_of_record

SF:/usr/include/c++/5/bits/ios_base.h
DA:129,51
DA:130,51
LF:2
LH:2
end_of_record
SF:/usr/include/c++/5/iostream
DA:74,1
LF:1
LH:1
end_of_record
SF:/home/uic84214/bootcamp/p10/src/p10.c
DA:13,2
DA:15,2
DA:16,2
DA:17,2
DA:19,2
DA:22,1
DA:24,0
DA:25,0
DA:27,0
DA:29,0
DA:33,1
DA:34,1
DA:36,1
DA:42,1
DA:45,0
DA:47,8
DA:50,8
DA:51,8
DA:53,68
DA:56,62
DA:58,62
DA:60,2
DA:61,2
DA:67,8
DA:69,8
DA:71,6
DA:73,6
DA:75,6
DA:77,5
DA:78,5
DA:81,5
DA:83,4
DA:85,4
DA:88,3
DA:90,23
DA:92,21
DA:94,21
DA:96,1
DA:97,1
DA:100,3
DA:102,2
DA:104,2
DA:106,1
DA:107,1
DA:111,1
DA:122,8
LF:46
LH:41
end_of_record
SF:/home/uic84214/bootcamp/p10/test/stubs.c
FN:15,_Z19pthread_create_stubPmPK14pthread_attr_tPFPvS3_ES3_
FN:20,_Z17pthread_join_stubmPPv
FN:25,_Z23pthread_mutex_lock_stubP15pthread_mutex_t
FN:30,_Z25pthread_mutex_unlock_stubP15pthread_mutex_t
FN:35,_Z27pthread_cond_broadcast_stubP14pthread_cond_t
FN:40,_Z25pthread_cond_destroy_stubP14pthread_cond_t
FN:45,_Z26pthread_mutex_destroy_stubP15pthread_mutex_t
FNDA:64,_Z19pthread_create_stubPmPK14pthread_attr_tPFPvS3_ES3_
FNDA:21,_Z17pthread_join_stubmPPv
FNDA:8,_Z23pthread_mutex_lock_stubP15pthread_mutex_t
FNDA:5,_Z25pthread_mutex_unlock_stubP15pthread_mutex_t
FNDA:5,_Z27pthread_cond_broadcast_stubP14pthread_cond_t
FNDA:2,_Z25pthread_cond_destroy_stubP14pthread_cond_t
FNDA:1,_Z26pthread_mutex_destroy_stubP15pthread_mutex_t
FNF:7
FNH:7
DA:15,64
DA:17,64
DA:20,21
DA:22,21
DA:25,8
DA:27,8
DA:30,5
DA:32,5
DA:35,5
DA:37,5
DA:40,2
DA:42,2
DA:45,1
DA:47,1
LF:14
LH:14
end_of_record
SF:/home/uic84214/bootcamp/p10/test/test.cpp
FN:32,_ZN13MyTestFixtureC2Ev
FN:45,_ZN13MyTestFixture5SetUpEv
FN:51,_ZN13MyTestFixture8TearDownEv
FN:56,_ZN13MyTestFixtureD2Ev
FN:56,_ZN13MyTestFixtureD0Ev
FN:63,_ZN30MyTestFixture_ThreadsFail_Test8TestBodyEv
FN:63,_ZN30MyTestFixture_ThreadsFail_TestC2Ev
FN:63,_ZN30MyTestFixture_ThreadsFail_TestD2Ev
FN:63,_ZN30MyTestFixture_ThreadsFail_TestD0Ev
FN:70,_ZN37MyTestFixture_PthreadCreateFails_Test8TestBodyEv
FN:70,_ZN37MyTestFixture_PthreadCreateFails_TestD0Ev
FN:70,_ZN37MyTestFixture_PthreadCreateFails_TestD2Ev
FN:70,_ZN37MyTestFixture_PthreadCreateFails_TestC2Ev
FN:76,_ZN40MyTestFixture_PthreadMutexLockFails_Test8TestBodyEv
FN:76,_ZN40MyTestFixture_PthreadMutexLockFails_TestD2Ev
FN:76,_ZN40MyTestFixture_PthreadMutexLockFails_TestC2Ev
FN:76,_ZN40MyTestFixture_PthreadMutexLockFails_TestD0Ev
FN:82,_ZN42MyTestFixture_PthreadMutexUnlockFails_TestC2Ev
FN:82,_ZN42MyTestFixture_PthreadMutexUnlockFails_TestD0Ev
FN:82,_ZN42MyTestFixture_PthreadMutexUnlockFails_TestD2Ev
FN:82,_ZN42MyTestFixture_PthreadMutexUnlockFails_Test8TestBodyEv
FN:88,_ZN35MyTestFixture_PthreadJoinFails_TestD0Ev
FN:88,_ZN35MyTestFixture_PthreadJoinFails_Test8TestBodyEv
FN:88,_ZN35MyTestFixture_PthreadJoinFails_TestC2Ev
FN:88,_ZN35MyTestFixture_PthreadJoinFails_TestD2Ev
FN:94,_ZN44MyTestFixture_PthreadCondBroadcastFails_Test8TestBodyEv
FN:94,_ZN44MyTestFixture_PthreadCondBroadcastFails_TestC2Ev
FN:94,_ZN44MyTestFixture_PthreadCondBroadcastFails_TestD0Ev
FN:94,_ZN44MyTestFixture_PthreadCondBroadcastFails_TestD2Ev
FN:100,_ZN42MyTestFixture_PthreadCondDestroyFails_TestD0Ev
FN:100,_ZN42MyTestFixture_PthreadCondDestroyFails_Test8TestBodyEv
FN:100,_ZN42MyTestFixture_PthreadCondDestroyFails_TestD2Ev
FN:100,_ZN42MyTestFixture_PthreadCondDestroyFails_TestC2Ev
FN:106,_ZN43MyTestFixture_PthreadMutexDestroyFails_TestD2Ev
FN:106,_ZN43MyTestFixture_PthreadMutexDestroyFails_Test8TestBodyEv
FN:106,_ZN43MyTestFixture_PthreadMutexDestroyFails_TestC2Ev
FN:106,_ZN43MyTestFixture_PthreadMutexDestroyFails_TestD0Ev
FN:112,_ZN46MyTestFixture_PthreadMutexLockFailsOnTask_TestD2Ev
FN:112,_ZN46MyTestFixture_PthreadMutexLockFailsOnTask_TestD0Ev
FN:112,_ZN46MyTestFixture_PthreadMutexLockFailsOnTask_Test8TestBodyEv
FN:112,_ZN46MyTestFixture_PthreadMutexLockFailsOnTask_TestC2Ev
FN:118,_ZN48MyTestFixture_PthreadMutexUnlockFailsOnTask_TestD0Ev
FN:118,_ZN48MyTestFixture_PthreadMutexUnlockFailsOnTask_TestC2Ev
FN:118,_ZN48MyTestFixture_PthreadMutexUnlockFailsOnTask_TestD2Ev
FN:118,_ZN48MyTestFixture_PthreadMutexUnlockFailsOnTask_Test8TestBodyEv
FN:124,main
FN:128,_GLOBAL__sub_I_condition_met
FN:128,_Z41__static_initialization_and_destruction_0ii
FNDA:10,_ZN13MyTestFixtureC2Ev
FNDA:10,_ZN13MyTestFixture5SetUpEv
FNDA:10,_ZN13MyTestFixture8TearDownEv
FNDA:0,_ZN13MyTestFixtureD0Ev
FNDA:10,_ZN13MyTestFixtureD2Ev
FNDA:1,_ZN30MyTestFixture_ThreadsFail_TestD0Ev
FNDA:1,_ZN30MyTestFixture_ThreadsFail_TestD2Ev
FNDA:1,_ZN30MyTestFixture_ThreadsFail_Test8TestBodyEv
FNDA:1,_ZN30MyTestFixture_ThreadsFail_TestC2Ev
FNDA:1,_ZN37MyTestFixture_PthreadCreateFails_TestD0Ev
FNDA:1,_ZN37MyTestFixture_PthreadCreateFails_TestD2Ev
FNDA:1,_ZN37MyTestFixture_PthreadCreateFails_Test8TestBodyEv
FNDA:1,_ZN37MyTestFixture_PthreadCreateFails_TestC2Ev
FNDA:1,_ZN40MyTestFixture_PthreadMutexLockFails_TestD0Ev
FNDA:1,_ZN40MyTestFixture_PthreadMutexLockFails_TestD2Ev
FNDA:1,_ZN40MyTestFixture_PthreadMutexLockFails_Test8TestBodyEv
FNDA:1,_ZN40MyTestFixture_PthreadMutexLockFails_TestC2Ev
FNDA:1,_ZN42MyTestFixture_PthreadMutexUnlockFails_TestD0Ev
FNDA:1,_ZN42MyTestFixture_PthreadMutexUnlockFails_TestD2Ev
FNDA:1,_ZN42MyTestFixture_PthreadMutexUnlockFails_Test8TestBodyEv
FNDA:1,_ZN42MyTestFixture_PthreadMutexUnlockFails_TestC2Ev
FNDA:1,_ZN35MyTestFixture_PthreadJoinFails_TestD0Ev
FNDA:1,_ZN35MyTestFixture_PthreadJoinFails_TestD2Ev
FNDA:1,_ZN35MyTestFixture_PthreadJoinFails_Test8TestBodyEv
FNDA:1,_ZN35MyTestFixture_PthreadJoinFails_TestC2Ev
FNDA:1,_ZN44MyTestFixture_PthreadCondBroadcastFails_TestD0Ev
FNDA:1,_ZN44MyTestFixture_PthreadCondBroadcastFails_TestD2Ev
FNDA:1,_ZN44MyTestFixture_PthreadCondBroadcastFails_Test8TestBodyEv
FNDA:1,_ZN44MyTestFixture_PthreadCondBroadcastFails_TestC2Ev
FNDA:1,_ZN42MyTestFixture_PthreadCondDestroyFails_TestD0Ev
FNDA:1,_ZN42MyTestFixture_PthreadCondDestroyFails_TestD2Ev
FNDA:1,_ZN42MyTestFixture_PthreadCondDestroyFails_Test8TestBodyEv
FNDA:1,_ZN42MyTestFixture_PthreadCondDestroyFails_TestC2Ev
FNDA:1,_ZN43MyTestFixture_PthreadMutexDestroyFails_TestD0Ev
FNDA:1,_ZN43MyTestFixture_PthreadMutexDestroyFails_TestD2Ev
FNDA:1,_ZN43MyTestFixture_PthreadMutexDestroyFails_Test8TestBodyEv
FNDA:1,_ZN43MyTestFixture_PthreadMutexDestroyFails_TestC2Ev
FNDA:1,_ZN46MyTestFixture_PthreadMutexLockFailsOnTask_TestD0Ev
FNDA:1,_ZN46MyTestFixture_PthreadMutexLockFailsOnTask_TestD2Ev
FNDA:1,_ZN46MyTestFixture_PthreadMutexLockFailsOnTask_Test8TestBodyEv
FNDA:1,_ZN46MyTestFixture_PthreadMutexLockFailsOnTask_TestC2Ev
FNDA:1,_ZN48MyTestFixture_PthreadMutexUnlockFailsOnTask_TestD0Ev
FNDA:1,_ZN48MyTestFixture_PthreadMutexUnlockFailsOnTask_TestD2Ev
FNDA:1,_ZN48MyTestFixture_PthreadMutexUnlockFailsOnTask_Test8TestBodyEv
FNDA:1,_ZN48MyTestFixture_PthreadMutexUnlockFailsOnTask_TestC2Ev
FNDA:1,main
FNDA:1,_GLOBAL__sub_I_condition_met
FNDA:1,_Z41__static_initialization_and_destruction_0ii
FNF:48
FNH:47
DA:30,10
DA:32,10
DA:33,20
DA:35,10
DA:36,10
DA:37,10
DA:38,10
DA:39,10
DA:40,10
DA:41,10
DA:42,10
DA:43,10
DA:45,10
DA:49,10
DA:51,10
DA:54,10
DA:56,10
DA:57,10
DA:59,10
DA:63,5
DA:65,1
DA:66,1
DA:67,1
DA:70,5
DA:72,1
DA:73,1
DA:76,5
DA:78,1
DA:79,1
DA:82,5
DA:84,1
DA:85,1
DA:88,5
DA:90,1
DA:91,1
DA:94,5
DA:96,1
DA:97,1
DA:100,5
DA:102,1
DA:103,1
DA:106,5
DA:108,1
DA:109,1
DA:112,5
DA:114,1
DA:115,1
DA:118,5
DA:120,1
DA:121,1
DA:124,1
DA:126,1
DA:127,1
DA:128,3
LF:54
LH:54
end_of_record
